ccopy_reg
_reconstructor
p0
(cgoogle.oauth2.credentials
Credentials
p1
c__builtin__
object
p2
Ntp3
Rp4
(dp5
S'_token_uri'
p6
Vhttps://oauth2.googleapis.com/token
p7
sS'_scopes'
p8
(lp9
S'https://www.googleapis.com/auth/gmail.readonly'
p10
asS'_id_token'
p11
NsS'token'
p12
Vya29.GlvvBvOIJTrezkbxUcmSvMINKsTg9EpP2jenGTU-Mrq7XeVongg1nOaU9q1He4PH3KtN-VEabFagnrNkPWKU0TLJJbBvqPNtQkv3qsVspQUCtcdV_uY3XrXo8TRI
p13
sS'_refresh_token'
p14
V1/Poecjundj1HCG4xM7QZg4uQCLP0YBHwgOv-2RYuvIRU
p15
sS'_client_secret'
p16
VjskUiXzxVT7DGG1s6ZVKfijk
p17
sS'_client_id'
p18
V49211704813-d25n2frb381pbmeffbqakd7l93ek7po3.apps.googleusercontent.com
p19
sS'expiry'
p20
cdatetime
datetime
p21
(S'\x07\xe3\x04\x12\x12\x00.\x02\xeeG'
p22
tp23
Rp24
sb.